target datalayout = "e-m:e-p270:32:32-p271:32:32-p272:64:64-i64:64-i128:128-f80:128-n8:16:32:64-S128"
target triple = "x86_64-pc-linux-gnu"

%struct.op_table_entry = type { ptr, ptr, ptr, ptr, ptr }

; Function Attrs: nounwind uwtable
define internal ptr @consume_uint8_t(ptr noundef %0, ptr noundef %1, ptr noundef %2) #0 {
  %4 = alloca ptr, align 8
  %5 = alloca ptr, align 8
  %6 = alloca ptr, align 8
  %7 = alloca ptr, align 8
  store ptr %0, ptr %5, align 8, !tbaa !11
  store ptr %1, ptr %6, align 8, !tbaa !21
  store ptr %2, ptr %7, align 8, !tbaa !11
  %8 = load ptr, ptr %6, align 8, !tbaa !21
  %9 = load i64, ptr %8, align 8, !tbaa !13
  %10 = icmp ult i64 %9, 1
  br i1 %10, label %11, label %12

11:                                               ; preds = %3
  store ptr null, ptr %4, align 8
  br label %21

12:                                               ; preds = %3
  %13 = load ptr, ptr %5, align 8, !tbaa !11
  %14 = load i8, ptr %13, align 1, !tbaa !16
  %15 = load ptr, ptr %7, align 8, !tbaa !11
  store i8 %14, ptr %15, align 1, !tbaa !16
  %16 = load ptr, ptr %6, align 8, !tbaa !21
  %17 = load i64, ptr %16, align 8, !tbaa !13
  %18 = sub i64 %17, 1
  store i64 %18, ptr %16, align 8, !tbaa !13
  %19 = load ptr, ptr %5, align 8, !tbaa !11
  %20 = getelementptr inbounds i8, ptr %19, i64 1
  store ptr %20, ptr %4, align 8
  br label %21

21:                                               ; preds = %12, %11
  %22 = load ptr, ptr %4, align 8
  ret ptr %22
}

; Function Attrs: nounwind uwtable
define dso_local i32 @FuzzerTestOneInput(ptr noundef %0, i64 noundef %1) #0 {
  %3 = alloca i32, align 4
  %4 = alloca ptr, align 8
  %5 = alloca i64, align 8
  %6 = alloca i8, align 1
  %7 = alloca ptr, align 8
  %8 = alloca ptr, align 8
  %9 = alloca ptr, align 8
  %10 = alloca ptr, align 8
  %11 = alloca ptr, align 8
  %12 = alloca i32, align 4
  store ptr %0, ptr %4, align 8, !tbaa !11
  store i64 %1, ptr %5, align 8, !tbaa !13
  call void @llvm.lifetime.start.p0(i64 1, ptr %6) #6
  call void @llvm.lifetime.start.p0(i64 8, ptr %7) #6
  call void @llvm.lifetime.start.p0(i64 8, ptr %8) #6
  store ptr null, ptr %8, align 8, !tbaa !15
  call void @llvm.lifetime.start.p0(i64 8, ptr %9) #6
  store ptr null, ptr %9, align 8, !tbaa !15
  call void @llvm.lifetime.start.p0(i64 8, ptr %10) #6
  store ptr null, ptr %10, align 8, !tbaa !15
  call void @llvm.lifetime.start.p0(i64 8, ptr %11) #6
  store ptr null, ptr %11, align 8, !tbaa !15
  %13 = load i64, ptr %5, align 8, !tbaa !13
  %14 = icmp ult i64 %13, 32
  br i1 %14, label %15, label %16

15:                                               ; preds = %2
  store i32 -1, ptr %3, align 4
  store i32 1, ptr %12, align 4
  br label %72

16:                                               ; preds = %2
  %17 = load ptr, ptr %4, align 8, !tbaa !11
  %18 = call ptr @consume_uint8_t(ptr noundef %17, ptr noundef %5, ptr noundef %6)
  store ptr %18, ptr %7, align 8, !tbaa !11
  %19 = load ptr, ptr %7, align 8, !tbaa !11
  %20 = icmp eq ptr %19, null
  br i1 %20, label %21, label %22

21:                                               ; preds = %16
  store i32 -1, ptr %3, align 4
  store i32 1, ptr %12, align 4
  br label %72

22:                                               ; preds = %16
  %23 = load i8, ptr %6, align 1, !tbaa !16
  %24 = zext i8 %23 to i64
  %25 = urem i64 %24, 6
  %26 = trunc i64 %25 to i8
  store i8 %26, ptr %6, align 1, !tbaa !16
  %27 = load i8, ptr %6, align 1, !tbaa !16
  %28 = zext i8 %27 to i64
  %29 = getelementptr inbounds nuw [6 x %struct.op_table_entry], ptr @ops, i64 0, i64 %28
  %30 = getelementptr inbounds nuw %struct.op_table_entry, ptr %29, i32 0, i32 2
  %31 = load ptr, ptr %30, align 8, !tbaa !17
  %32 = icmp ne ptr %31, null
  br i1 %32, label %33, label %39

33:                                               ; preds = %22
  %34 = load i8, ptr %6, align 1, !tbaa !16
  %35 = zext i8 %34 to i64
  %36 = getelementptr inbounds nuw [6 x %struct.op_table_entry], ptr @ops, i64 0, i64 %35
  %37 = getelementptr inbounds nuw %struct.op_table_entry, ptr %36, i32 0, i32 2
  %38 = load ptr, ptr %37, align 8, !tbaa !17
  call void %38(ptr noundef %7, ptr noundef %5, ptr noundef %8, ptr noundef %9)
  br label %39

39:                                               ; preds = %33, %22
  %40 = load i8, ptr %6, align 1, !tbaa !16
  %41 = zext i8 %40 to i64
  %42 = getelementptr inbounds nuw [6 x %struct.op_table_entry], ptr @ops, i64 0, i64 %41
  %43 = getelementptr inbounds nuw %struct.op_table_entry, ptr %42, i32 0, i32 3
  %44 = load ptr, ptr %43, align 8, !tbaa !19
  %45 = icmp ne ptr %44, null
  br i1 %45, label %46, label %54

46:                                               ; preds = %39
  %47 = load i8, ptr %6, align 1, !tbaa !16
  %48 = zext i8 %47 to i64
  %49 = getelementptr inbounds nuw [6 x %struct.op_table_entry], ptr @ops, i64 0, i64 %48
  %50 = getelementptr inbounds nuw %struct.op_table_entry, ptr %49, i32 0, i32 3
  %51 = load ptr, ptr %50, align 8, !tbaa !19
  %52 = load ptr, ptr %8, align 8, !tbaa !15
  %53 = load ptr, ptr %9, align 8, !tbaa !15
  call void %51(ptr noundef %7, ptr noundef %5, ptr noundef %52, ptr noundef %53, ptr noundef %10, ptr noundef %11)
  br label %54

54:                                               ; preds = %46, %39
  %55 = load i8, ptr %6, align 1, !tbaa !16
  %56 = zext i8 %55 to i64
  %57 = getelementptr inbounds nuw [6 x %struct.op_table_entry], ptr @ops, i64 0, i64 %56
  %58 = getelementptr inbounds nuw %struct.op_table_entry, ptr %57, i32 0, i32 4
  %59 = load ptr, ptr %58, align 8, !tbaa !20
  %60 = icmp ne ptr %59, null
  br i1 %60, label %61, label %71

61:                                               ; preds = %54
  %62 = load i8, ptr %6, align 1, !tbaa !16
  %63 = zext i8 %62 to i64
  %64 = getelementptr inbounds nuw [6 x %struct.op_table_entry], ptr @ops, i64 0, i64 %63
  %65 = getelementptr inbounds nuw %struct.op_table_entry, ptr %64, i32 0, i32 4
  %66 = load ptr, ptr %65, align 8, !tbaa !20
  %67 = load ptr, ptr %8, align 8, !tbaa !15
  %68 = load ptr, ptr %9, align 8, !tbaa !15
  %69 = load ptr, ptr %10, align 8, !tbaa !15
  %70 = load ptr, ptr %11, align 8, !tbaa !15
  call void %66(ptr noundef %67, ptr noundef %68, ptr noundef %69, ptr noundef %70)
  br label %71

71:                                               ; preds = %61, %54
  store i32 0, ptr %3, align 4
  store i32 1, ptr %12, align 4
  br label %72

72:                                               ; preds = %71, %21, %15
  call void @llvm.lifetime.end.p0(i64 8, ptr %11) #6
  call void @llvm.lifetime.end.p0(i64 8, ptr %10) #6
  call void @llvm.lifetime.end.p0(i64 8, ptr %9) #6
  call void @llvm.lifetime.end.p0(i64 8, ptr %8) #6
  call void @llvm.lifetime.end.p0(i64 8, ptr %7) #6
  call void @llvm.lifetime.end.p0(i64 1, ptr %6) #6
  %73 = load i32, ptr %3, align 4
  ret i32 %73
}