; Function Attrs: nounwind uwtable
define dso_local range(i32 -1, 1) i32 @FuzzerTestOneInput(ptr noundef %0, i64 noundef %1) local_unnamed_addr #1 {
  %3 = alloca i64, align 8
  %4 = alloca ptr, align 8
  %5 = alloca ptr, align 8
  %6 = alloca ptr, align 8
  %7 = alloca ptr, align 8
  %8 = alloca ptr, align 8
  call void @llvm.lifetime.start.p0(i64 8, ptr nonnull %4) #6
  call void @llvm.lifetime.start.p0(i64 8, ptr nonnull %5) #6
  store ptr null, ptr %5, align 8, !tbaa !4
  call void @llvm.lifetime.start.p0(i64 8, ptr nonnull %6) #6
  store ptr null, ptr %6, align 8, !tbaa !4
  call void @llvm.lifetime.start.p0(i64 8, ptr nonnull %7) #6
  store ptr null, ptr %7, align 8, !tbaa !4
  call void @llvm.lifetime.start.p0(i64 8, ptr nonnull %8) #6
  store ptr null, ptr %8, align 8, !tbaa !4
  %9 = icmp ult i64 %1, 32
  br i1 %9, label %28, label %10

10:                                               ; preds = %2
  %11 = load i8, ptr %0, align 1, !tbaa !8
  %12 = add i64 %1, -1
  store i64 %12, ptr %3, align 8, !tbaa !9
  %13 = getelementptr inbounds nuw i8, ptr %0, i64 1
  store ptr %13, ptr %4, align 8, !tbaa !11
  %14 = urem i8 %11, 6
  %15 = zext nneg i8 %14 to i64
  %16 = getelementptr inbounds nuw [6 x %struct.op_table_entry], ptr @ops, i64 0, i64 %15, i32 2
  %17 = load ptr, ptr %16, align 8, !tbaa !13
  call void %17(ptr noundef nonnull %4, ptr noundef nonnull %3, ptr noundef nonnull %5, ptr noundef nonnull %6) #6
  %.not = icmp samesign ult i8 %14, 2
  br i1 %.not, label %23, label %18

18:                                               ; preds = %10
  %19 = getelementptr inbounds nuw [6 x %struct.op_table_entry], ptr @ops, i64 0, i64 %15, i32 3
  %20 = load ptr, ptr %19, align 8, !tbaa !15
  %21 = load ptr, ptr %5, align 8, !tbaa !4
  %22 = load ptr, ptr %6, align 8, !tbaa !4
  call void %20(ptr noundef nonnull %4, ptr noundef nonnull %3, ptr noundef %21, ptr noundef %22, ptr noundef nonnull %7, ptr noundef nonnull %8) #6
  %.pre = load ptr, ptr %7, align 8, !tbaa !4
  %.pre8 = load ptr, ptr %8, align 8, !tbaa !4
  br label %23

23:                                               ; preds = %10, %18
  %24 = phi ptr [ null, %10 ], [ %.pre8, %18 ]
  %25 = phi ptr [ null, %10 ], [ %.pre, %18 ]
  %26 = load ptr, ptr %5, align 8, !tbaa !4
  %27 = load ptr, ptr %6, align 8, !tbaa !4
  call void @EVP_PKEY_free(ptr noundef %26) #6
  call void @EVP_PKEY_free(ptr noundef %27) #6
  call void @EVP_PKEY_free(ptr noundef %25) #6
  call void @EVP_PKEY_free(ptr noundef %24) #6
  br label %28

28:                                               ; preds = %2, %23
  %.0 = phi i32 [ 0, %23 ], [ -1, %2 ]
  call void @llvm.lifetime.end.p0(i64 8, ptr nonnull %8) #6
  call void @llvm.lifetime.end.p0(i64 8, ptr nonnull %7) #6
  call void @llvm.lifetime.end.p0(i64 8, ptr nonnull %6) #6
  call void @llvm.lifetime.end.p0(i64 8, ptr nonnull %5) #6
  call void @llvm.lifetime.end.p0(i64 8, ptr nonnull %4) #6
  ret i32 %.0
}